target datalayout = "e-m:e-p270:32:32-p271:32:32-p272:64:64-i64:64-i128:128-f80:128-n8:16:32:64-S128"
target triple = "x86_64-pc-linux-gnu"

%"struct.net::QuicPacketHeader" = type <{ %"struct.net::QuicPacketPublicHeader", i64, i8, i8, i8, i8, [4 x i8] }>
%"struct.net::QuicPacketPublicHeader" = type { i64, i32, i8, i8, i8, i8, %"class.std::vector", ptr }
%"class.std::vector" = type { %"struct.std::_Vector_base" }
%"struct.std::_Vector_base" = type { %"struct.std::_Vector_base<net::QuicVersion, std::allocator<net::QuicVersion>>::_Vector_impl" }
%"struct.std::_Vector_base<net::QuicVersion, std::allocator<net::QuicVersion>>::_Vector_impl" = type { %"struct.std::_Vector_base<net::QuicVersion, std::allocator<net::QuicVersion>>::_Vector_impl_data" }
%"struct.std::_Vector_base<net::QuicVersion, std::allocator<net::QuicVersion>>::_Vector_impl_data" = type { ptr, ptr, ptr }

; Function Attrs: mustprogress nounwind uwtable
define noundef i64 @_ZN3net19GetPacketHeaderSizeENS_11QuicVersionENS_22QuicConnectionIdLengthEbbbNS_22QuicPacketNumberLengthE(i32 noundef %0, i32 noundef %1, i1 noundef zeroext %2, i1 noundef zeroext %3, i1 noundef zeroext %4, i8 noundef signext %5) #1 {
  %7 = alloca i32, align 4
  %8 = alloca i32, align 4
  %9 = alloca i8, align 1
  %10 = alloca i8, align 1
  %11 = alloca i8, align 1
  %12 = alloca i8, align 1
  store i32 %0, ptr %7, align 4, !tbaa !3
  store i32 %1, ptr %8, align 4, !tbaa !28
  %13 = zext i1 %2 to i8
  store i8 %13, ptr %9, align 1, !tbaa !29
  %14 = zext i1 %3 to i8
  store i8 %14, ptr %10, align 1, !tbaa !29
  %15 = zext i1 %4 to i8
  store i8 %15, ptr %11, align 1, !tbaa !29
  store i8 %5, ptr %12, align 1, !tbaa !30
  %16 = load i32, ptr %8, align 4, !tbaa !28
  %17 = zext i32 %16 to i64
  %18 = add i64 1, %17
  %19 = load i8, ptr %9, align 1, !tbaa !29, !range !23, !noundef !24
  %20 = trunc i8 %19 to i1
  %21 = select i1 %20, i64 4, i64 0
  %22 = add i64 %18, %21
  %23 = load i8, ptr %10, align 1, !tbaa !29, !range !23, !noundef !24
  %24 = trunc i8 %23 to i1
  %25 = select i1 %24, i64 1, i64 0
  %26 = add i64 %22, %25
  %27 = load i8, ptr %12, align 1, !tbaa !30
  %28 = sext i8 %27 to i64
  %29 = add i64 %26, %28
  %30 = load i8, ptr %11, align 1, !tbaa !29, !range !23, !noundef !24
  %31 = trunc i8 %30 to i1
  %32 = select i1 %31, i64 32, i64 0
  %33 = add i64 %29, %32
  %34 = load i32, ptr %7, align 4, !tbaa !3
  %35 = icmp sle i32 %34, 33
  %36 = select i1 %35, i64 1, i64 0
  %37 = add i64 %33, %36
  ret i64 %37
}

; Function Attrs: mustprogress uwtable
define noundef i64 @_ZN3net19GetPacketHeaderSizeENS_11QuicVersionERKNS_16QuicPacketHeaderE(i32 noundef %0, ptr noundef nonnull align 8 dereferenceable(60) %1) #0 {
  %3 = alloca i32, align 4
  %4 = alloca ptr, align 8
  store i32 %0, ptr %3, align 4, !tbaa !3
  store ptr %1, ptr %4, align 8, !tbaa !7
  %5 = load i32, ptr %3, align 4, !tbaa !3
  %6 = load ptr, ptr %4, align 8, !tbaa !7
  %7 = getelementptr inbounds nuw %"struct.net::QuicPacketHeader", ptr %6, i32 0, i32 0
  %8 = getelementptr inbounds nuw %"struct.net::QuicPacketPublicHeader", ptr %7, i32 0, i32 1
  %9 = load i32, ptr %8, align 8, !tbaa !10
  %10 = load ptr, ptr %4, align 8, !tbaa !7
  %11 = getelementptr inbounds nuw %"struct.net::QuicPacketHeader", ptr %10, i32 0, i32 0
  %12 = getelementptr inbounds nuw %"struct.net::QuicPacketPublicHeader", ptr %11, i32 0, i32 4
  %13 = load i8, ptr %12, align 2, !tbaa !22, !range !23, !noundef !24
  %14 = trunc i8 %13 to i1
  %15 = load ptr, ptr %4, align 8, !tbaa !7
  %16 = getelementptr inbounds nuw %"struct.net::QuicPacketHeader", ptr %15, i32 0, i32 0
  %17 = getelementptr inbounds nuw %"struct.net::QuicPacketPublicHeader", ptr %16, i32 0, i32 2
  %18 = load i8, ptr %17, align 4, !tbaa !25, !range !23, !noundef !24
  %19 = trunc i8 %18 to i1
  %20 = load ptr, ptr %4, align 8, !tbaa !7
  %21 = getelementptr inbounds nuw %"struct.net::QuicPacketHeader", ptr %20, i32 0, i32 0
  %22 = getelementptr inbounds nuw %"struct.net::QuicPacketPublicHeader", ptr %21, i32 0, i32 7
  %23 = load ptr, ptr %22, align 8, !tbaa !26
  %24 = icmp ne ptr %23, null
  %25 = load ptr, ptr %4, align 8, !tbaa !7
  %26 = getelementptr inbounds nuw %"struct.net::QuicPacketHeader", ptr %25, i32 0, i32 0
  %27 = getelementptr inbounds nuw %"struct.net::QuicPacketPublicHeader", ptr %26, i32 0, i32 5
  %28 = load i8, ptr %27, align 1, !tbaa !27
  %29 = call noundef i64 @_ZN3net19GetPacketHeaderSizeENS_11QuicVersionENS_22QuicConnectionIdLengthEbbbNS_22QuicPacketNumberLengthE(i32 noundef %5, i32 noundef %9, i1 noundef zeroext %14, i1 noundef zeroext %19, i1 noundef zeroext %24, i8 noundef signext %28)
  ret i64 %29
}