; Function Attrs: mustprogress nofree norecurse nosync nounwind willreturn memory(argmem: read) uwtable
define noundef range(i64 -127, 4294967462) i64 @_ZN3net19GetPacketHeaderSizeENS_11QuicVersionERKNS_16QuicPacketHeaderE(i32 noundef %0, ptr noundef nonnull readonly align 8 captures(none) dereferenceable(60) %1) local_unnamed_addr #0 {
  %3 = getelementptr inbounds nuw i8, ptr %1, i64 8
  %4 = load i32, ptr %3, align 8, !tbaa !3
  %5 = getelementptr inbounds nuw i8, ptr %1, i64 14
  %6 = load i8, ptr %5, align 2, !tbaa !18, !range !19, !noundef !20
  %7 = trunc nuw i8 %6 to i1
  %8 = getelementptr inbounds nuw i8, ptr %1, i64 12
  %9 = load i8, ptr %8, align 4, !tbaa !21, !range !19, !noundef !20
  %10 = zext nneg i8 %9 to i64
  %11 = getelementptr inbounds nuw i8, ptr %1, i64 40
  %12 = load ptr, ptr %11, align 8, !tbaa !22
  %.not = icmp eq ptr %12, null
  %13 = getelementptr inbounds nuw i8, ptr %1, i64 15
  %14 = load i8, ptr %13, align 1, !tbaa !23
  %15 = zext i32 %4 to i64
  %16 = select i1 %7, i64 4, i64 0
  %17 = sext i8 %14 to i64
  %18 = select i1 %.not, i64 0, i64 32
  %19 = icmp slt i32 %0, 34
  %20 = select i1 %19, i64 2, i64 1
  %21 = add nuw nsw i64 %20, %15
  %22 = add nuw nsw i64 %21, %16
  %23 = add nuw nsw i64 %22, %10
  %24 = add nuw nsw i64 %23, %18
  %25 = add nsw i64 %24, %17
  ret i64 %25
}